target datalayout = "e-m:e-p270:32:32-p271:32:32-p272:64:64-i64:64-i128:128-f80:128-n8:16:32:64-S128"
target triple = "x86_64-pc-linux-gnu"

%struct.H5VL_file_get_args_t = type { i32, %union.anon.5 }
%union.anon.5 = type { %struct.H5VL_file_get_name_args_t }
%struct.H5VL_file_get_name_args_t = type { i32, i64, ptr, ptr }

@H5_libinit_g = external global i8, align 1
@H5_libterm_g = external global i8, align 1
@.str = private unnamed_addr constant [97 x i8] c"generated/home/dtcxzyw/WorkSpace/Projects/compilers/llvm-opt-benchmark/bench/hdf5/hdf5/src/H5R.c\00", align 1
@H5E_FUNC_g = external global i64, align 8
@H5E_CANTINIT_g = external global i64, align 8
@.str.1 = private unnamed_addr constant [30 x i8] c"library initialization failed\00", align 1
@H5E_CANTSET_g = external global i64, align 8
@.str.2 = private unnamed_addr constant [22 x i8] c"can't set API context\00", align 1
@H5E_ARGS_g = external global i64, align 8
@H5E_BADVALUE_g = external global i64, align 8
@.str.3 = private unnamed_addr constant [26 x i8] c"invalid reference pointer\00", align 1
@H5E_BADTYPE_g = external global i64, align 8
@.str.7 = private unnamed_addr constant [28 x i8] c"invalid location identifier\00", align 1
@H5P_LST_DATASET_XFER_ID_g = external global i64, align 8
@H5E_REFERENCE_g = external global i64, align 8
@H5E_CANTGET_g = external global i64, align 8
@.str.20 = private unnamed_addr constant [23 x i8] c"invalid reference type\00", align 1
@__func__.H5Rget_file_name = private unnamed_addr constant [17 x i8] c"H5Rget_file_name\00", align 1
@.str.45 = private unnamed_addr constant [29 x i8] c"unable to retrieve file name\00", align 1
@.str.46 = private unnamed_addr constant [24 x i8] c"unable to get file name\00", align 1

; Function Attrs: nounwind uwtable
define i64 @H5Rget_file_name(ptr noundef %0, ptr noundef %1, i64 noundef %2) #0 {
  %4 = alloca ptr, align 8
  %5 = alloca ptr, align 8
  %6 = alloca i64, align 8
  %7 = alloca i64, align 8
  %8 = alloca i64, align 8
  %9 = alloca i8, align 1
  %10 = alloca i8, align 1
  %11 = alloca ptr, align 8
  %12 = alloca %struct.H5VL_file_get_args_t, align 8
  %13 = alloca i64, align 8
  store ptr %0, ptr %4, align 8
  store ptr %1, ptr %5, align 8
  store i64 %2, ptr %6, align 8
  store i8 0, ptr %9, align 1
  store i8 0, ptr %10, align 1
  %14 = load i8, ptr @H5_libinit_g, align 1
  %15 = trunc i8 %14 to i1
  br i1 %15, label %20, label %16

16:                                               ; preds = %3
  %17 = load i8, ptr @H5_libterm_g, align 1
  %18 = trunc i8 %17 to i1
  %19 = xor i1 %18, true
  br label %20

20:                                               ; preds = %16, %3
  %21 = phi i1 [ false, %3 ], [ %19, %16 ]
  %22 = xor i1 %21, true
  %23 = xor i1 %22, true
  %24 = zext i1 %23 to i32
  %25 = sext i32 %24 to i64
  %26 = icmp ne i64 %25, 0
  br i1 %26, label %27, label %51

27:                                               ; preds = %20
  %28 = call i32 @H5_init_library()
  %29 = icmp slt i32 %28, 0
  %30 = xor i1 %29, true
  %31 = xor i1 %30, true
  %32 = zext i1 %31 to i32
  %33 = sext i32 %32 to i64
  %34 = icmp ne i64 %33, 0
  br i1 %34, label %35, label %50

35:                                               ; preds = %27
  br label %36

36:                                               ; preds = %35
  br label %37

37:                                               ; preds = %36
  br label %38

38:                                               ; preds = %37
  %39 = load i64, ptr @H5E_FUNC_g, align 8
  %40 = load i64, ptr @H5E_CANTINIT_g, align 8
  %41 = call i32 (ptr, ptr, i32, i64, i64, ptr, ...) @H5E_printf_stack(ptr noundef @.str, ptr noundef @__func__.H5Rget_file_name, i32 noundef 1026, i64 noundef %39, i64 noundef %40, ptr noundef @.str.1)
  br label %42

42:                                               ; preds = %38
  store i8 1, ptr %10, align 1
  %43 = load i8, ptr %10, align 1
  %44 = trunc i8 %43 to i1
  %45 = zext i1 %44 to i8
  store i8 %45, ptr %10, align 1
  br label %46

46:                                               ; preds = %42
  br label %47

47:                                               ; preds = %46
  store i64 -1, ptr %8, align 8
  br label %196

48:                                               ; No predecessors!
  br label %49

49:                                               ; preds = %48
  br label %50

50:                                               ; preds = %49, %27
  br label %51

51:                                               ; preds = %50, %20
  %52 = call i32 @H5CX_push()
  %53 = icmp slt i32 %52, 0
  %54 = xor i1 %53, true
  %55 = xor i1 %54, true
  %56 = zext i1 %55 to i32
  %57 = sext i32 %56 to i64
  %58 = icmp ne i64 %57, 0
  br i1 %58, label %59, label %74

59:                                               ; preds = %51
  br label %60

60:                                               ; preds = %59
  br label %61

61:                                               ; preds = %60
  br label %62

62:                                               ; preds = %61
  %63 = load i64, ptr @H5E_FUNC_g, align 8
  %64 = load i64, ptr @H5E_CANTSET_g, align 8
  %65 = call i32 (ptr, ptr, i32, i64, i64, ptr, ...) @H5E_printf_stack(ptr noundef @.str, ptr noundef @__func__.H5Rget_file_name, i32 noundef 1026, i64 noundef %63, i64 noundef %64, ptr noundef @.str.2)
  br label %66

66:                                               ; preds = %62
  store i8 1, ptr %10, align 1
  %67 = load i8, ptr %10, align 1
  %68 = trunc i8 %67 to i1
  %69 = zext i1 %68 to i8
  store i8 %69, ptr %10, align 1
  br label %70

70:                                               ; preds = %66
  br label %71

71:                                               ; preds = %70
  store i64 -1, ptr %8, align 8
  br label %196

72:                                               ; No predecessors!
  br label %73

73:                                               ; preds = %72
  br label %75

74:                                               ; preds = %51
  store i8 1, ptr %9, align 1
  br label %75

75:                                               ; preds = %74, %73
  %76 = call i32 @H5E_clear_stack()
  %77 = load ptr, ptr %4, align 8
  %78 = icmp eq ptr %77, null
  br i1 %78, label %79, label %94

79:                                               ; preds = %75
  br label %80

80:                                               ; preds = %79
  br label %81

81:                                               ; preds = %80
  br label %82

82:                                               ; preds = %81
  %83 = load i64, ptr @H5E_ARGS_g, align 8
  %84 = load i64, ptr @H5E_BADVALUE_g, align 8
  %85 = call i32 (ptr, ptr, i32, i64, i64, ptr, ...) @H5E_printf_stack(ptr noundef @.str, ptr noundef @__func__.H5Rget_file_name, i32 noundef 1030, i64 noundef %83, i64 noundef %84, ptr noundef @.str.3)
  br label %86

86:                                               ; preds = %82
  store i8 1, ptr %10, align 1
  %87 = load i8, ptr %10, align 1
  %88 = trunc i8 %87 to i1
  %89 = zext i1 %88 to i8
  store i8 %89, ptr %10, align 1
  br label %90

90:                                               ; preds = %86
  br label %91

91:                                               ; preds = %90
  store i64 -1, ptr %8, align 8
  br label %196

92:                                               ; No predecessors!
  br label %93

93:                                               ; preds = %92
  br label %94

94:                                               ; preds = %93, %75
  %95 = load ptr, ptr %4, align 8
  %96 = call i32 @H5R__get_type(ptr noundef %95)
  %97 = icmp sle i32 %96, -1
  br i1 %97, label %102, label %98

98:                                               ; preds = %94
  %99 = load ptr, ptr %4, align 8
  %100 = call i32 @H5R__get_type(ptr noundef %99)
  %101 = icmp sge i32 %100, 5
  br i1 %101, label %102, label %117

102:                                              ; preds = %98, %94
  br label %103

103:                                              ; preds = %102
  br label %104

104:                                              ; preds = %103
  br label %105

105:                                              ; preds = %104
  %106 = load i64, ptr @H5E_ARGS_g, align 8
  %107 = load i64, ptr @H5E_BADVALUE_g, align 8
  %108 = call i32 (ptr, ptr, i32, i64, i64, ptr, ...) @H5E_printf_stack(ptr noundef @.str, ptr noundef @__func__.H5Rget_file_name, i32 noundef 1033, i64 noundef %106, i64 noundef %107, ptr noundef @.str.20)
  br label %109

109:                                              ; preds = %105
  store i8 1, ptr %10, align 1
  %110 = load i8, ptr %10, align 1
  %111 = trunc i8 %110 to i1
  %112 = zext i1 %111 to i8
  store i8 %112, ptr %10, align 1
  br label %113

113:                                              ; preds = %109
  br label %114

114:                                              ; preds = %113
  store i64 -1, ptr %8, align 8
  br label %196

115:                                              ; No predecessors!
  br label %116

116:                                              ; preds = %115
  br label %117

117:                                              ; preds = %116, %98
  %118 = load ptr, ptr %4, align 8
  %119 = call i64 @H5R__get_loc_id(ptr noundef %118)
  store i64 %119, ptr %7, align 8
  %120 = icmp eq i64 -1, %119
  br i1 %120, label %121, label %143

121:                                              ; preds = %117
  %122 = load ptr, ptr %4, align 8
  %123 = load ptr, ptr %5, align 8
  %124 = load i64, ptr %6, align 8
  %125 = call i64 @H5R__get_file_name(ptr noundef %122, ptr noundef %123, i64 noundef %124)
  store i64 %125, ptr %8, align 8
  %126 = icmp slt i64 %125, 0
  br i1 %126, label %127, label %142

127:                                              ; preds = %121
  br label %128

128:                                              ; preds = %127
  br label %129

129:                                              ; preds = %128
  br label %130

130:                                              ; preds = %129
  %131 = load i64, ptr @H5E_REFERENCE_g, align 8
  %132 = load i64, ptr @H5E_CANTGET_g, align 8
  %133 = call i32 (ptr, ptr, i32, i64, i64, ptr, ...) @H5E_printf_stack(ptr noundef @.str, ptr noundef @__func__.H5Rget_file_name, i32 noundef 1040, i64 noundef %131, i64 noundef %132, ptr noundef @.str.45)
  br label %134

134:                                              ; preds = %130
  store i8 1, ptr %10, align 1
  %135 = load i8, ptr %10, align 1
  %136 = trunc i8 %135 to i1
  %137 = zext i1 %136 to i8
  store i8 %137, ptr %10, align 1
  br label %138

138:                                              ; preds = %134
  br label %139

139:                                              ; preds = %138
  store i64 -1, ptr %8, align 8
  br label %196

140:                                              ; No predecessors!
  br label %141

141:                                              ; preds = %140
  br label %142

142:                                              ; preds = %141, %121
  br label %195

143:                                              ; preds = %117
  store i64 0, ptr %13, align 8
  %144 = load i64, ptr %7, align 8
  %145 = call ptr @H5VL_vol_object(i64 noundef %144)
  store ptr %145, ptr %11, align 8
  %146 = icmp eq ptr null, %145
  br i1 %146, label %147, label %162

147:                                              ; preds = %143
  br label %148

148:                                              ; preds = %147
  br label %149

149:                                              ; preds = %148
  br label %150

150:                                              ; preds = %149
  %151 = load i64, ptr @H5E_ARGS_g, align 8
  %152 = load i64, ptr @H5E_BADTYPE_g, align 8
  %153 = call i32 (ptr, ptr, i32, i64, i64, ptr, ...) @H5E_printf_stack(ptr noundef @.str, ptr noundef @__func__.H5Rget_file_name, i32 noundef 1049, i64 noundef %151, i64 noundef %152, ptr noundef @.str.7)
  br label %154

154:                                              ; preds = %150
  store i8 1, ptr %10, align 1
  %155 = load i8, ptr %10, align 1
  %156 = trunc i8 %155 to i1
  %157 = zext i1 %156 to i8
  store i8 %157, ptr %10, align 1
  br label %158

158:                                              ; preds = %154
  br label %159

159:                                              ; preds = %158
  store i64 -1, ptr %8, align 8
  br label %196

160:                                              ; No predecessors!
  br label %161

161:                                              ; preds = %160
  br label %162

162:                                              ; preds = %161, %143
  %163 = getelementptr inbounds %struct.H5VL_file_get_args_t, ptr %12, i32 0, i32 0
  store i32 5, ptr %163, align 8
  %164 = getelementptr inbounds %struct.H5VL_file_get_args_t, ptr %12, i32 0, i32 1
  %165 = getelementptr inbounds %struct.H5VL_file_get_name_args_t, ptr %164, i32 0, i32 0
  store i32 1, ptr %165, align 8
  %166 = load i64, ptr %6, align 8
  %167 = getelementptr inbounds %struct.H5VL_file_get_args_t, ptr %12, i32 0, i32 1
  %168 = getelementptr inbounds %struct.H5VL_file_get_name_args_t, ptr %167, i32 0, i32 1
  store i64 %166, ptr %168, align 8
  %169 = load ptr, ptr %5, align 8
  %170 = getelementptr inbounds %struct.H5VL_file_get_args_t, ptr %12, i32 0, i32 1
  %171 = getelementptr inbounds %struct.H5VL_file_get_name_args_t, ptr %170, i32 0, i32 2
  store ptr %169, ptr %171, align 8
  %172 = getelementptr inbounds %struct.H5VL_file_get_args_t, ptr %12, i32 0, i32 1
  %173 = getelementptr inbounds %struct.H5VL_file_get_name_args_t, ptr %172, i32 0, i32 3
  store ptr %13, ptr %173, align 8
  %174 = load ptr, ptr %11, align 8
  %175 = load i64, ptr @H5P_LST_DATASET_XFER_ID_g, align 8
  %176 = call i32 @H5VL_file_get(ptr noundef %174, ptr noundef %12, i64 noundef %175, ptr noundef null)
  %177 = icmp slt i32 %176, 0
  br i1 %177, label %178, label %193

178:                                              ; preds = %162
  br label %179

179:                                              ; preds = %178
  br label %180

180:                                              ; preds = %179
  br label %181

181:                                              ; preds = %180
  %182 = load i64, ptr @H5E_REFERENCE_g, align 8
  %183 = load i64, ptr @H5E_CANTGET_g, align 8
  %184 = call i32 (ptr, ptr, i32, i64, i64, ptr, ...) @H5E_printf_stack(ptr noundef @.str, ptr noundef @__func__.H5Rget_file_name, i32 noundef 1060, i64 noundef %182, i64 noundef %183, ptr noundef @.str.46)
  br label %185

185:                                              ; preds = %181
  store i8 1, ptr %10, align 1
  %186 = load i8, ptr %10, align 1
  %187 = trunc i8 %186 to i1
  %188 = zext i1 %187 to i8
  store i8 %188, ptr %10, align 1
  br label %189

189:                                              ; preds = %185
  br label %190

190:                                              ; preds = %189
  store i64 -1, ptr %8, align 8
  br label %196

191:                                              ; No predecessors!
  br label %192

192:                                              ; preds = %191
  br label %193

193:                                              ; preds = %192, %162
  %194 = load i64, ptr %13, align 8
  store i64 %194, ptr %8, align 8
  br label %195

195:                                              ; preds = %193, %142
  br label %196

196:                                              ; preds = %195, %190, %159, %139, %114, %91, %71, %47
  %197 = load i8, ptr %9, align 1
  %198 = trunc i8 %197 to i1
  %199 = xor i1 %198, true
  %200 = xor i1 %199, true
  %201 = zext i1 %200 to i32
  %202 = sext i32 %201 to i64
  %203 = icmp ne i64 %202, 0
  br i1 %203, label %204, label %206

204:                                              ; preds = %196
  %205 = call i32 @H5CX_pop(i1 noundef zeroext true)
  store i8 0, ptr %9, align 1
  br label %206

206:                                              ; preds = %204, %196
  %207 = load i8, ptr %10, align 1
  %208 = trunc i8 %207 to i1
  %209 = xor i1 %208, true
  %210 = xor i1 %209, true
  %211 = zext i1 %210 to i32
  %212 = sext i32 %211 to i64
  %213 = icmp ne i64 %212, 0
  br i1 %213, label %214, label %216

214:                                              ; preds = %206
  %215 = call i32 @H5E_dump_api_stack()
  br label %216

216:                                              ; preds = %214, %206
  %217 = load i64, ptr %8, align 8
  ret i64 %217
}