; Function Attrs: nounwind uwtable
define i64 @H5Rget_file_name(ptr noundef %0, ptr noundef %1, i64 noundef %2) local_unnamed_addr #0 {
  %4 = alloca %struct.H5VL_file_get_args_t, align 8
  %5 = alloca i64, align 8
  %6 = load i8, ptr @H5_libinit_g, align 1
  %7 = trunc i8 %6 to i1
  %8 = load i8, ptr @H5_libterm_g, align 1
  %9 = trunc i8 %8 to i1
  %10 = select i1 %7, i1 true, i1 %9
  br i1 %10, label %18, label %11

11:                                               ; preds = %3
  %12 = tail call i32 @H5_init_library() #4
  %13 = icmp slt i32 %12, 0
  br i1 %13, label %14, label %18

14:                                               ; preds = %11
  %15 = load i64, ptr @H5E_FUNC_g, align 8
  %16 = load i64, ptr @H5E_CANTINIT_g, align 8
  %17 = tail call i32 (ptr, ptr, i32, i64, i64, ptr, ...) @H5E_printf_stack(ptr noundef nonnull @.str, ptr noundef nonnull @__func__.H5Rget_file_name, i32 noundef 1026, i64 noundef %15, i64 noundef %16, ptr noundef nonnull @.str.1) #4
  br label %.thread34

18:                                               ; preds = %11, %3
  %19 = tail call i32 @H5CX_push() #4
  %20 = icmp slt i32 %19, 0
  br i1 %20, label %21, label %25

21:                                               ; preds = %18
  %22 = load i64, ptr @H5E_FUNC_g, align 8
  %23 = load i64, ptr @H5E_CANTSET_g, align 8
  %24 = tail call i32 (ptr, ptr, i32, i64, i64, ptr, ...) @H5E_printf_stack(ptr noundef nonnull @.str, ptr noundef nonnull @__func__.H5Rget_file_name, i32 noundef 1026, i64 noundef %22, i64 noundef %23, ptr noundef nonnull @.str.2) #4
  br label %.thread34

25:                                               ; preds = %18
  %26 = tail call i32 @H5E_clear_stack() #4
  %27 = icmp eq ptr %0, null
  br i1 %27, label %28, label %32

28:                                               ; preds = %25
  %29 = load i64, ptr @H5E_ARGS_g, align 8
  %30 = load i64, ptr @H5E_BADVALUE_g, align 8
  %31 = tail call i32 (ptr, ptr, i32, i64, i64, ptr, ...) @H5E_printf_stack(ptr noundef nonnull @.str, ptr noundef nonnull @__func__.H5Rget_file_name, i32 noundef 1030, i64 noundef %29, i64 noundef %30, ptr noundef nonnull @.str.3) #4
  br label %.thread40

32:                                               ; preds = %25
  %33 = tail call i32 @H5R__get_type(ptr noundef nonnull %0) #4
  %34 = icmp slt i32 %33, 0
  br i1 %34, label %38, label %35

35:                                               ; preds = %32
  %36 = tail call i32 @H5R__get_type(ptr noundef nonnull %0) #4
  %37 = icmp sgt i32 %36, 4
  br i1 %37, label %38, label %42

38:                                               ; preds = %32, %35
  %39 = load i64, ptr @H5E_ARGS_g, align 8
  %40 = load i64, ptr @H5E_BADVALUE_g, align 8
  %41 = tail call i32 (ptr, ptr, i32, i64, i64, ptr, ...) @H5E_printf_stack(ptr noundef nonnull @.str, ptr noundef nonnull @__func__.H5Rget_file_name, i32 noundef 1033, i64 noundef %39, i64 noundef %40, ptr noundef nonnull @.str.20) #4
  br label %.thread40

42:                                               ; preds = %35
  %43 = tail call i64 @H5R__get_loc_id(ptr noundef nonnull %0) #4
  %44 = icmp eq i64 %43, -1
  br i1 %44, label %45, label %52

45:                                               ; preds = %42
  %46 = tail call i64 @H5R__get_file_name(ptr noundef nonnull %0, ptr noundef %1, i64 noundef %2) #4
  %47 = icmp slt i64 %46, 0
  br i1 %47, label %48, label %74

48:                                               ; preds = %45
  %49 = load i64, ptr @H5E_REFERENCE_g, align 8
  %50 = load i64, ptr @H5E_CANTGET_g, align 8
  %51 = tail call i32 (ptr, ptr, i32, i64, i64, ptr, ...) @H5E_printf_stack(ptr noundef nonnull @.str, ptr noundef nonnull @__func__.H5Rget_file_name, i32 noundef 1040, i64 noundef %49, i64 noundef %50, ptr noundef nonnull @.str.45) #4
  br label %.thread40

52:                                               ; preds = %42
  store i64 0, ptr %5, align 8
  %53 = tail call ptr @H5VL_vol_object(i64 noundef %43) #4
  %54 = icmp eq ptr %53, null
  br i1 %54, label %55, label %59

55:                                               ; preds = %52
  %56 = load i64, ptr @H5E_ARGS_g, align 8
  %57 = load i64, ptr @H5E_BADTYPE_g, align 8
  %58 = tail call i32 (ptr, ptr, i32, i64, i64, ptr, ...) @H5E_printf_stack(ptr noundef nonnull @.str, ptr noundef nonnull @__func__.H5Rget_file_name, i32 noundef 1049, i64 noundef %56, i64 noundef %57, ptr noundef nonnull @.str.7) #4
  br label %.thread40

59:                                               ; preds = %52
  store i32 5, ptr %4, align 8
  %60 = getelementptr inbounds i8, ptr %4, i64 8
  store i32 1, ptr %60, align 8
  %61 = getelementptr inbounds i8, ptr %4, i64 16
  store i64 %2, ptr %61, align 8
  %62 = getelementptr inbounds i8, ptr %4, i64 24
  store ptr %1, ptr %62, align 8
  %63 = getelementptr inbounds i8, ptr %4, i64 32
  store ptr %5, ptr %63, align 8
  %64 = load i64, ptr @H5P_LST_DATASET_XFER_ID_g, align 8
  %65 = call i32 @H5VL_file_get(ptr noundef nonnull %53, ptr noundef nonnull %4, i64 noundef %64, ptr noundef null) #4
  %66 = icmp slt i32 %65, 0
  br i1 %66, label %67, label %71

67:                                               ; preds = %59
  %68 = load i64, ptr @H5E_REFERENCE_g, align 8
  %69 = load i64, ptr @H5E_CANTGET_g, align 8
  %70 = call i32 (ptr, ptr, i32, i64, i64, ptr, ...) @H5E_printf_stack(ptr noundef nonnull @.str, ptr noundef nonnull @__func__.H5Rget_file_name, i32 noundef 1060, i64 noundef %68, i64 noundef %69, ptr noundef nonnull @.str.46) #4
  br label %.thread40

71:                                               ; preds = %59
  %72 = load i64, ptr %5, align 8
  br label %74

.thread40:                                        ; preds = %67, %55, %48, %38, %28
  %73 = call i32 @H5CX_pop(i1 noundef zeroext true) #4
  br label %.thread34

74:                                               ; preds = %71, %45
  %.0.ph = phi i64 [ %72, %71 ], [ %46, %45 ]
  %75 = call i32 @H5CX_pop(i1 noundef zeroext true) #4
  br label %77

.thread34:                                        ; preds = %21, %14, %.thread40
  %76 = call i32 @H5E_dump_api_stack() #4
  br label %77

77:                                               ; preds = %74, %.thread34
  %.03137 = phi i64 [ -1, %.thread34 ], [ %.0.ph, %74 ]
  ret i64 %.03137
}